; Function Attrs: nofree norecurse nosync nounwind memory(argmem: read) uwtable
define double @_testfunc_array_in_struct3C(ptr noundef readonly byval(%struct.Test3C) align 8 captures(none) %0) local_unnamed_addr #8 {
  br label %3

2:                                                ; preds = %3
  ret double %6

3:                                                ; preds = %1, %3
  %indvars.iv = phi i64 [ 0, %1 ], [ %indvars.iv.next, %3 ]
  %.046 = phi double [ 0.000000e+00, %1 ], [ %6, %3 ]
  %4 = getelementptr [4 x double], ptr %0, i64 0, i64 %indvars.iv
  %5 = load double, ptr %4, align 8, !tbaa !23
  %6 = fadd double %.046, %5
  %indvars.iv.next = add nuw nsw i64 %indvars.iv, 1
  %exitcond.not = icmp eq i64 %indvars.iv.next, 4
  br i1 %exitcond.not, label %2, label %3, !llvm.loop !25
}